; Function Attrs: nofree nounwind memory(read, inaccessiblemem: none) uwtable
define internal i32 @t1_get_name_index(ptr nocapture noundef readonly %0, ptr nocapture noundef readonly %1) #7 {
  %3 = getelementptr inbounds i8, ptr %0, i64 640
  %4 = load i32, ptr %3, align 8
  %5 = icmp sgt i32 %4, 0
  br i1 %5, label %.lr.ph, label %._crit_edge

.lr.ph:                                           ; preds = %2
  %6 = getelementptr inbounds i8, ptr %0, i64 648
  %7 = load ptr, ptr %6, align 8
  %wide.trip.count = zext nneg i32 %4 to i64
  br label %8

8:                                                ; preds = %.lr.ph, %12
  %indvars.iv = phi i64 [ 0, %.lr.ph ], [ %indvars.iv.next, %12 ]
  %9 = getelementptr inbounds ptr, ptr %7, i64 %indvars.iv
  %10 = load ptr, ptr %9, align 8
  %11 = tail call i32 @strcmp(ptr noundef nonnull dereferenceable(1) %1, ptr noundef nonnull dereferenceable(1) %10) #17
  %.not = icmp eq i32 %11, 0
  br i1 %.not, label %._crit_edge.loopexit.split.loop.exit14, label %12

12:                                               ; preds = %8
  %indvars.iv.next = add nuw nsw i64 %indvars.iv, 1
  %exitcond.not = icmp eq i64 %indvars.iv.next, %wide.trip.count
  br i1 %exitcond.not, label %._crit_edge, label %8, !llvm.loop !15

._crit_edge.loopexit.split.loop.exit14:           ; preds = %8
  %13 = trunc nuw nsw i64 %indvars.iv to i32
  br label %._crit_edge

._crit_edge:                                      ; preds = %12, %._crit_edge.loopexit.split.loop.exit14, %2
  %.0 = phi i32 [ 0, %2 ], [ %13, %._crit_edge.loopexit.split.loop.exit14 ], [ 0, %12 ]
  ret i32 %.0
}